#include <math.h>
#include <stdio.h>
#include <stdlib.h>
#include <string.h>

main()
{
      char c[100000];
      int m,i,j,t,b[150];
      scanf("%d",&m);
      for(i=1;i<=m;i++)
      {
       memset(b,0,sizeof(b));
      scanf("%s",c);
      j=0;
      while(c[j]!=0)
      {                   
                    b[c[j]]++;
                    j++;
                    }
      for(t=0;t<j;t++)
      {
                   if(b[c[t]]==1)
                   {
                   printf("%c\n",c[t]);
                   break;
                   }
                   if(b[c[j-1]]!=1&&t==j-1)
                   printf("%c%c\n",'n','o');
                   }
                   }

                   }
                   
                    
      
