; ModuleID = 'source-C-CXX/36/1687.c'
source_filename = "source-C-CXX/36/1687.c"
target datalayout = "e-m:e-p270:32:32-p271:32:32-p272:64:64-i64:64-f80:128-n8:16:32:64-S128"
target triple = "x86_64-pc-linux-gnu"

@.str = private unnamed_addr constant [3 x i8] c"%d\00", align 1
@.str.1 = private unnamed_addr constant [3 x i8] c"%s\00", align 1
@.str.2 = private unnamed_addr constant [4 x i8] c"%c\0A\00", align 1
@.str.3 = private unnamed_addr constant [6 x i8] c"%c%c\0A\00", align 1

; Function Attrs: nofree nounwind sspstrong uwtable
define dso_local i32 @main() local_unnamed_addr #0 {
  %1 = alloca [100000 x i8], align 16
  %2 = alloca i32, align 4
  %3 = alloca [150 x i32], align 16
  %4 = getelementptr inbounds [100000 x i8], [100000 x i8]* %1, i64 0, i64 0
  call void @llvm.lifetime.start.p0i8(i64 100000, i8* nonnull %4) #4
  %5 = bitcast i32* %2 to i8*
  call void @llvm.lifetime.start.p0i8(i64 4, i8* nonnull %5) #4
  %6 = bitcast [150 x i32]* %3 to i8*
  call void @llvm.lifetime.start.p0i8(i64 600, i8* nonnull %6) #4
  %7 = call i32 (i8*, ...) @__isoc99_scanf(i8* getelementptr inbounds ([3 x i8], [3 x i8]* @.str, i64 0, i64 0), i32* nonnull %2)
  %8 = load i32, i32* %2, align 4, !tbaa !5
  %9 = icmp slt i32 %8, 1
  br i1 %9, label %68, label %10

10:                                               ; preds = %0, %64
  %11 = phi i32 [ %65, %64 ], [ 1, %0 ]
  call void @llvm.memset.p0i8.i64(i8* noundef nonnull align 16 dereferenceable(600) %6, i8 0, i64 600, i1 false)
  %12 = call i32 (i8*, ...) @__isoc99_scanf(i8* getelementptr inbounds ([3 x i8], [3 x i8]* @.str.1, i64 0, i64 0), i8* nonnull %4)
  %13 = load i8, i8* %4, align 16, !tbaa !9
  %14 = icmp eq i8 %13, 0
  br i1 %14, label %64, label %28

15:                                               ; preds = %28
  %16 = trunc i64 %35 to i32
  %17 = add nsw i32 %16, -1
  %18 = sext i32 %17 to i64
  %19 = getelementptr inbounds [100000 x i8], [100000 x i8]* %1, i64 0, i64 %18
  %20 = icmp eq i32 %16, 0
  br i1 %20, label %64, label %21

21:                                               ; preds = %15
  %22 = zext i32 %17 to i64
  %23 = and i64 %35, 4294967295
  %24 = sext i8 %13 to i64
  %25 = getelementptr inbounds [150 x i32], [150 x i32]* %3, i64 0, i64 %24
  %26 = load i32, i32* %25, align 4, !tbaa !5
  %27 = icmp eq i32 %26, 1
  br i1 %27, label %39, label %43

28:                                               ; preds = %10, %28
  %29 = phi i64 [ %35, %28 ], [ 0, %10 ]
  %30 = phi i8 [ %37, %28 ], [ %13, %10 ]
  %31 = sext i8 %30 to i64
  %32 = getelementptr inbounds [150 x i32], [150 x i32]* %3, i64 0, i64 %31
  %33 = load i32, i32* %32, align 4, !tbaa !5
  %34 = add nsw i32 %33, 1
  store i32 %34, i32* %32, align 4, !tbaa !5
  %35 = add nuw nsw i64 %29, 1
  %36 = getelementptr inbounds [100000 x i8], [100000 x i8]* %1, i64 0, i64 %35
  %37 = load i8, i8* %36, align 1, !tbaa !9
  %38 = icmp eq i8 %37, 0
  br i1 %38, label %15, label %28, !llvm.loop !10

39:                                               ; preds = %57, %21
  %40 = phi i8 [ %13, %21 ], [ %59, %57 ]
  %41 = sext i8 %40 to i32
  %42 = call i32 (i8*, ...) @printf(i8* nonnull dereferenceable(1) getelementptr inbounds ([4 x i8], [4 x i8]* @.str.2, i64 0, i64 0), i32 %41)
  br label %64

43:                                               ; preds = %21, %57
  %44 = phi i64 [ %55, %57 ], [ 0, %21 ]
  %45 = load i8, i8* %19, align 1, !tbaa !9
  %46 = sext i8 %45 to i64
  %47 = getelementptr inbounds [150 x i32], [150 x i32]* %3, i64 0, i64 %46
  %48 = load i32, i32* %47, align 4, !tbaa !5
  %49 = icmp ne i32 %48, 1
  %50 = icmp eq i64 %44, %22
  %51 = select i1 %49, i1 %50, i1 false
  br i1 %51, label %52, label %54

52:                                               ; preds = %43
  %53 = call i32 (i8*, ...) @printf(i8* nonnull dereferenceable(1) getelementptr inbounds ([6 x i8], [6 x i8]* @.str.3, i64 0, i64 0), i32 110, i32 111)
  br label %54

54:                                               ; preds = %43, %52
  %55 = add nuw nsw i64 %44, 1
  %56 = icmp eq i64 %55, %23
  br i1 %56, label %64, label %57, !llvm.loop !12

57:                                               ; preds = %54
  %58 = getelementptr inbounds [100000 x i8], [100000 x i8]* %1, i64 0, i64 %55
  %59 = load i8, i8* %58, align 1, !tbaa !9
  %60 = sext i8 %59 to i64
  %61 = getelementptr inbounds [150 x i32], [150 x i32]* %3, i64 0, i64 %60
  %62 = load i32, i32* %61, align 4, !tbaa !5
  %63 = icmp eq i32 %62, 1
  br i1 %63, label %39, label %43

64:                                               ; preds = %54, %10, %15, %39
  %65 = add nuw nsw i32 %11, 1
  %66 = load i32, i32* %2, align 4, !tbaa !5
  %67 = icmp slt i32 %11, %66
  br i1 %67, label %10, label %68, !llvm.loop !13

68:                                               ; preds = %64, %0
  call void @llvm.lifetime.end.p0i8(i64 600, i8* nonnull %6) #4
  call void @llvm.lifetime.end.p0i8(i64 4, i8* nonnull %5) #4
  call void @llvm.lifetime.end.p0i8(i64 100000, i8* nonnull %4) #4
  ret i32 0
}

; Function Attrs: argmemonly mustprogress nofree nosync nounwind willreturn
declare void @llvm.lifetime.start.p0i8(i64 immarg, i8* nocapture) #1

; Function Attrs: nofree nounwind
declare noundef i32 @__isoc99_scanf(i8* nocapture noundef readonly, ...) local_unnamed_addr #2

; Function Attrs: argmemonly mustprogress nofree nounwind willreturn writeonly
declare void @llvm.memset.p0i8.i64(i8* nocapture writeonly, i8, i64, i1 immarg) #3

; Function Attrs: nofree nounwind
declare noundef i32 @printf(i8* nocapture noundef readonly, ...) local_unnamed_addr #2

; Function Attrs: argmemonly mustprogress nofree nosync nounwind willreturn
declare void @llvm.lifetime.end.p0i8(i64 immarg, i8* nocapture) #1


!llvm.module.flags = !{!0, !1, !2, !3}
!llvm.ident = !{!4}

!0 = !{i32 1, !"wchar_size", i32 4}
!1 = !{i32 7, !"PIC Level", i32 2}
!2 = !{i32 7, !"PIE Level", i32 2}
!3 = !{i32 7, !"uwtable", i32 1}
!4 = !{!"clang version 13.0.0"}
!5 = !{!6, !6, i64 0}
!6 = !{!"int", !7, i64 0}
!7 = !{!"omnipotent char", !8, i64 0}
!8 = !{!"Simple C/C++ TBAA"}
!9 = !{!7, !7, i64 0}
!10 = distinct !{!10, !11}
!11 = !{!"llvm.loop.mustprogress"}
!12 = distinct !{!12, !11}
!13 = distinct !{!13, !11}
